target datalayout = "e-m:e-p270:32:32-p271:32:32-p272:64:64-i64:64-i128:128-f80:128-n8:16:32:64-S128"
target triple = "x86_64-pc-linux-gnu"

; Function Attrs: mustprogress nounwind uwtable
define void @_ZN6LibRaw10trimSpacesEPc(ptr noundef %0) #4 align 2 {
  %2 = alloca ptr, align 8
  %3 = alloca ptr, align 8
  %4 = alloca i32, align 4
  %5 = alloca i32, align 4
  store ptr %0, ptr %2, align 8, !tbaa !89
  call void @llvm.lifetime.start.p0(i64 8, ptr %3) #8
  %6 = load ptr, ptr %2, align 8, !tbaa !89
  store ptr %6, ptr %3, align 8, !tbaa !89
  call void @llvm.lifetime.start.p0(i64 4, ptr %4) #8
  %7 = load ptr, ptr %3, align 8, !tbaa !89
  %8 = call i64 @strlen(ptr noundef %7) #9
  %9 = trunc i64 %8 to i32
  store i32 %9, ptr %4, align 4, !tbaa !11
  %10 = load i32, ptr %4, align 4, !tbaa !11
  %11 = icmp ne i32 %10, 0
  br i1 %11, label %13, label %12

12:                                               ; preds = %1
  store i32 1, ptr %5, align 4
  br label %54

13:                                               ; preds = %1
  br label %14

14:                                               ; preds = %24, %13
  %15 = load ptr, ptr %3, align 8, !tbaa !89
  %16 = load i32, ptr %4, align 4, !tbaa !11
  %17 = sub nsw i32 %16, 1
  %18 = sext i32 %17 to i64
  %19 = getelementptr inbounds i8, ptr %15, i64 %18
  %20 = load i8, ptr %19, align 1, !tbaa !76
  %21 = sext i8 %20 to i32
  %22 = call i32 @isspace(i32 noundef %21) #9
  %23 = icmp ne i32 %22, 0
  br i1 %23, label %24, label %30

24:                                               ; preds = %14
  %25 = load ptr, ptr %3, align 8, !tbaa !89
  %26 = load i32, ptr %4, align 4, !tbaa !11
  %27 = add nsw i32 %26, -1
  store i32 %27, ptr %4, align 4, !tbaa !11
  %28 = sext i32 %27 to i64
  %29 = getelementptr inbounds i8, ptr %25, i64 %28
  store i8 0, ptr %29, align 1, !tbaa !76
  br label %14, !llvm.loop !90

30:                                               ; preds = %14
  br label %31

31:                                               ; preds = %43, %30
  %32 = load ptr, ptr %3, align 8, !tbaa !89
  %33 = load i8, ptr %32, align 1, !tbaa !76
  %34 = icmp ne i8 %33, 0
  br i1 %34, label %35, label %41

35:                                               ; preds = %31
  %36 = load ptr, ptr %3, align 8, !tbaa !89
  %37 = load i8, ptr %36, align 1, !tbaa !76
  %38 = sext i8 %37 to i32
  %39 = call i32 @isspace(i32 noundef %38) #9
  %40 = icmp ne i32 %39, 0
  br label %41

41:                                               ; preds = %35, %31
  %42 = phi i1 [ false, %31 ], [ %40, %35 ]
  br i1 %42, label %43, label %48

43:                                               ; preds = %41
  %44 = load ptr, ptr %3, align 8, !tbaa !89
  %45 = getelementptr inbounds nuw i8, ptr %44, i32 1
  store ptr %45, ptr %3, align 8, !tbaa !89
  %46 = load i32, ptr %4, align 4, !tbaa !11
  %47 = add nsw i32 %46, -1
  store i32 %47, ptr %4, align 4, !tbaa !11
  br label %31, !llvm.loop !91

48:                                               ; preds = %41
  %49 = load ptr, ptr %2, align 8, !tbaa !89
  %50 = load ptr, ptr %3, align 8, !tbaa !89
  %51 = load i32, ptr %4, align 4, !tbaa !11
  %52 = add nsw i32 %51, 1
  %53 = sext i32 %52 to i64
  call void @llvm.memmove.p0.p0.i64(ptr align 1 %49, ptr align 1 %50, i64 %53, i1 false)
  store i32 0, ptr %5, align 4
  br label %54

54:                                               ; preds = %48, %12
  call void @llvm.lifetime.end.p0(i64 4, ptr %4) #8
  call void @llvm.lifetime.end.p0(i64 8, ptr %3) #8
  %55 = load i32, ptr %5, align 4
  switch i32 %55, label %57 [
    i32 0, label %56
    i32 1, label %56
  ]

56:                                               ; preds = %54, %54
  ret void

57:                                               ; preds = %54
  unreachable
}