; Function Attrs: mustprogress nofree nounwind memory(read, argmem: readwrite) uwtable
define void @_ZN6LibRaw10trimSpacesEPc(ptr noundef captures(none) %0) local_unnamed_addr #4 align 2 {
  %2 = tail call i64 @strlen(ptr noundef nonnull dereferenceable(1) %0) #12
  %3 = trunc i64 %2 to i32
  %.not = icmp eq i32 %3, 0
  br i1 %.not, label %24, label %.preheader19

.preheader19:                                     ; preds = %1
  %invariant.gep = getelementptr i8, ptr %0, i64 -1
  %sext = shl i64 %2, 32
  %4 = ashr exact i64 %sext, 32
  %gep20 = getelementptr i8, ptr %invariant.gep, i64 %4
  %5 = load i8, ptr %gep20, align 1, !tbaa !73
  %6 = sext i8 %5 to i32
  %7 = tail call i32 @isspace(i32 noundef %6) #12
  %.not1621 = icmp eq i32 %7, 0
  br i1 %.not1621, label %.preheader, label %.lr.ph.preheader

.lr.ph.preheader:                                 ; preds = %.preheader19
  %sext33 = shl i64 %2, 32
  %8 = ashr exact i64 %sext33, 32
  br label %.lr.ph

.preheader.loopexit:                              ; preds = %.lr.ph
  %9 = trunc nsw i64 %indvars.iv.next to i32
  br label %.preheader

.preheader:                                       ; preds = %.preheader.loopexit, %.preheader19
  %.0.lcssa = phi i32 [ %3, %.preheader19 ], [ %9, %.preheader.loopexit ]
  %10 = load i8, ptr %0, align 1, !tbaa !73
  %.not1723 = icmp eq i8 %10, 0
  br i1 %.not1723, label %.critedge, label %.lr.ph26

.lr.ph:                                           ; preds = %.lr.ph.preheader, %.lr.ph
  %indvars.iv = phi i64 [ %8, %.lr.ph.preheader ], [ %indvars.iv.next, %.lr.ph ]
  %indvars.iv.next = add nsw i64 %indvars.iv, -1
  %11 = getelementptr inbounds i8, ptr %0, i64 %indvars.iv.next
  store i8 0, ptr %11, align 1, !tbaa !73
  %gep = getelementptr i8, ptr %invariant.gep, i64 %indvars.iv.next
  %12 = load i8, ptr %gep, align 1, !tbaa !73
  %13 = sext i8 %12 to i32
  %14 = tail call i32 @isspace(i32 noundef %13) #12
  %.not16 = icmp eq i32 %14, 0
  br i1 %.not16, label %.preheader.loopexit, label %.lr.ph, !llvm.loop !85

.lr.ph26:                                         ; preds = %.preheader, %18
  %15 = phi i8 [ %21, %18 ], [ %10, %.preheader ]
  %.125 = phi i32 [ %20, %18 ], [ %.0.lcssa, %.preheader ]
  %.01324 = phi ptr [ %19, %18 ], [ %0, %.preheader ]
  %16 = sext i8 %15 to i32
  %17 = tail call i32 @isspace(i32 noundef %16) #12
  %.not18 = icmp eq i32 %17, 0
  br i1 %.not18, label %.critedge, label %18

18:                                               ; preds = %.lr.ph26
  %19 = getelementptr inbounds nuw i8, ptr %.01324, i64 1
  %20 = add nsw i32 %.125, -1
  %21 = load i8, ptr %19, align 1, !tbaa !73
  %.not17 = icmp eq i8 %21, 0
  br i1 %.not17, label %.critedge, label %.lr.ph26, !llvm.loop !86

.critedge:                                        ; preds = %.lr.ph26, %18, %.preheader
  %.013.lcssa = phi ptr [ %0, %.preheader ], [ %19, %18 ], [ %.01324, %.lr.ph26 ]
  %.1.lcssa = phi i32 [ %.0.lcssa, %.preheader ], [ %20, %18 ], [ %.125, %.lr.ph26 ]
  %22 = add nsw i32 %.1.lcssa, 1
  %23 = sext i32 %22 to i64
  tail call void @llvm.memmove.p0.p0.i64(ptr nonnull align 1 %0, ptr nonnull align 1 %.013.lcssa, i64 %23, i1 false)
  br label %24

24:                                               ; preds = %1, %.critedge
  ret void
}